target datalayout = "e-m:e-p270:32:32-p271:32:32-p272:64:64-i64:64-i128:128-f80:128-n8:16:32:64-S128"
target triple = "x86_64-pc-linux-gnu"

%struct.stbvox_mesh_maker = type { %struct.stbvox_input_description, i32, i32, i32, i32, i32, i32, i32, i32, i32, i32, i32, i32, i32, i32, [6 x [4 x i32]], [6 x [4 x i32]], i32, i32, i32, i32, [2 x [3 x ptr]], [2 x [3 x ptr]], [2 x [3 x ptr]], [2 x [3 x i32]], [2 x [3 x i32]], [2 x [3 x i32]], i32, [128 x [2 x float]] }
%struct.stbvox_input_description = type { i8, ptr, ptr, ptr, ptr, ptr, ptr, ptr, ptr, ptr, ptr, ptr, ptr, ptr, ptr, ptr, ptr, ptr, ptr, ptr, ptr, ptr, ptr, ptr, ptr, ptr, ptr, ptr, ptr, ptr, ptr, ptr, ptr, ptr, ptr, ptr, ptr, ptr, ptr, ptr, ptr, ptr, ptr }

@stbvox_default_palette = global [64 x [4 x float]] zeroinitializer, align 16

; Function Attrs: nounwind uwtable
define void @stbvox_build_default_palette() #0 {
  %1 = alloca i32, align 4
  call void @llvm.lifetime.start.p0(i64 4, ptr %1) #4
  store i32 0, ptr %1, align 4, !tbaa !3
  br label %2

2:                                                ; preds = %46, %0
  %3 = load i32, ptr %1, align 4, !tbaa !3
  %4 = icmp slt i32 %3, 64
  br i1 %4, label %5, label %49

5:                                                ; preds = %2
  %6 = load i32, ptr %1, align 4, !tbaa !3
  %7 = sext i32 %6 to i64
  %8 = getelementptr inbounds [64 x [3 x i8]], ptr @stbvox_default_palette_compact, i64 0, i64 %7
  %9 = getelementptr inbounds [3 x i8], ptr %8, i64 0, i64 0
  %10 = load i8, ptr %9, align 1, !tbaa !7
  %11 = zext i8 %10 to i32
  %12 = sitofp i32 %11 to float
  %13 = fdiv float %12, 2.550000e+02
  %14 = load i32, ptr %1, align 4, !tbaa !3
  %15 = sext i32 %14 to i64
  %16 = getelementptr inbounds [64 x [4 x float]], ptr @stbvox_default_palette, i64 0, i64 %15
  %17 = getelementptr inbounds [4 x float], ptr %16, i64 0, i64 0
  store float %13, ptr %17, align 16, !tbaa !8
  %18 = load i32, ptr %1, align 4, !tbaa !3
  %19 = sext i32 %18 to i64
  %20 = getelementptr inbounds [64 x [3 x i8]], ptr @stbvox_default_palette_compact, i64 0, i64 %19
  %21 = getelementptr inbounds [3 x i8], ptr %20, i64 0, i64 1
  %22 = load i8, ptr %21, align 1, !tbaa !7
  %23 = zext i8 %22 to i32
  %24 = sitofp i32 %23 to float
  %25 = fdiv float %24, 2.550000e+02
  %26 = load i32, ptr %1, align 4, !tbaa !3
  %27 = sext i32 %26 to i64
  %28 = getelementptr inbounds [64 x [4 x float]], ptr @stbvox_default_palette, i64 0, i64 %27
  %29 = getelementptr inbounds [4 x float], ptr %28, i64 0, i64 1
  store float %25, ptr %29, align 4, !tbaa !8
  %30 = load i32, ptr %1, align 4, !tbaa !3
  %31 = sext i32 %30 to i64
  %32 = getelementptr inbounds [64 x [3 x i8]], ptr @stbvox_default_palette_compact, i64 0, i64 %31
  %33 = getelementptr inbounds [3 x i8], ptr %32, i64 0, i64 2
  %34 = load i8, ptr %33, align 1, !tbaa !7
  %35 = zext i8 %34 to i32
  %36 = sitofp i32 %35 to float
  %37 = fdiv float %36, 2.550000e+02
  %38 = load i32, ptr %1, align 4, !tbaa !3
  %39 = sext i32 %38 to i64
  %40 = getelementptr inbounds [64 x [4 x float]], ptr @stbvox_default_palette, i64 0, i64 %39
  %41 = getelementptr inbounds [4 x float], ptr %40, i64 0, i64 2
  store float %37, ptr %41, align 8, !tbaa !8
  %42 = load i32, ptr %1, align 4, !tbaa !3
  %43 = sext i32 %42 to i64
  %44 = getelementptr inbounds [64 x [4 x float]], ptr @stbvox_default_palette, i64 0, i64 %43
  %45 = getelementptr inbounds [4 x float], ptr %44, i64 0, i64 3
  store float 1.000000e+00, ptr %45, align 4, !tbaa !8
  br label %46

46:                                               ; preds = %5
  %47 = load i32, ptr %1, align 4, !tbaa !3
  %48 = add nsw i32 %47, 1
  store i32 %48, ptr %1, align 4, !tbaa !3
  br label %2, !llvm.loop !10

49:                                               ; preds = %2
  call void @llvm.lifetime.end.p0(i64 4, ptr %1) #4
  ret void
}

; Function Attrs: nounwind uwtable
define void @stbvox_init_mesh_maker(ptr noundef %0) #0 {
  %2 = alloca ptr, align 8
  store ptr %0, ptr %2, align 8, !tbaa !20
  %3 = load ptr, ptr %2, align 8, !tbaa !20
  call void @llvm.memset.p0.i64(ptr align 8 %3, i8 0, i64 1856, i1 false)
  call void @stbvox_build_default_palette()
  %4 = load ptr, ptr %2, align 8, !tbaa !20
  %5 = getelementptr inbounds nuw %struct.stbvox_mesh_maker, ptr %4, i32 0, i32 12
  store i32 1, ptr %5, align 4, !tbaa !102
  %6 = load ptr, ptr %2, align 8, !tbaa !20
  %7 = getelementptr inbounds nuw %struct.stbvox_mesh_maker, ptr %6, i32 0, i32 13
  store i32 0, ptr %7, align 8, !tbaa !80
  ret void
}