; Function Attrs: nofree norecurse nosync nounwind memory(readwrite, argmem: write, inaccessiblemem: none) uwtable
define void @stbvox_init_mesh_maker(ptr noundef writeonly captures(none) initializes((0, 1856)) %0) local_unnamed_addr #10 {
  tail call void @llvm.memset.p0.i64(ptr noundef nonnull align 8 dereferenceable(1856) %0, i8 0, i64 1856, i1 false)
  br label %2

2:                                                ; preds = %2, %1
  %indvars.iv.i = phi i64 [ 0, %1 ], [ %indvars.iv.next.i, %2 ]
  %3 = getelementptr inbounds nuw [64 x [3 x i8]], ptr @stbvox_default_palette_compact, i64 0, i64 %indvars.iv.i
  %4 = load i8, ptr %3, align 1, !tbaa !3
  %5 = uitofp i8 %4 to float
  %6 = fdiv float %5, 2.550000e+02
  %7 = getelementptr inbounds nuw [64 x [4 x float]], ptr @stbvox_default_palette, i64 0, i64 %indvars.iv.i
  store float %6, ptr %7, align 16, !tbaa !6
  %8 = getelementptr inbounds nuw i8, ptr %3, i64 1
  %9 = load i8, ptr %8, align 1, !tbaa !3
  %10 = uitofp i8 %9 to float
  %11 = fdiv float %10, 2.550000e+02
  %12 = getelementptr inbounds nuw i8, ptr %7, i64 4
  store float %11, ptr %12, align 4, !tbaa !6
  %13 = getelementptr inbounds nuw i8, ptr %3, i64 2
  %14 = load i8, ptr %13, align 1, !tbaa !3
  %15 = uitofp i8 %14 to float
  %16 = fdiv float %15, 2.550000e+02
  %17 = getelementptr inbounds nuw i8, ptr %7, i64 8
  store float %16, ptr %17, align 8, !tbaa !6
  %18 = getelementptr inbounds nuw i8, ptr %7, i64 12
  store float 1.000000e+00, ptr %18, align 4, !tbaa !6
  %indvars.iv.next.i = add nuw nsw i64 %indvars.iv.i, 1
  %exitcond.not.i = icmp eq i64 %indvars.iv.next.i, 64
  br i1 %exitcond.not.i, label %stbvox_build_default_palette.exit, label %2, !llvm.loop !8

stbvox_build_default_palette.exit:                ; preds = %2
  %19 = getelementptr inbounds nuw i8, ptr %0, i64 388
  store i32 1, ptr %19, align 4, !tbaa !86
  %20 = getelementptr inbounds nuw i8, ptr %0, i64 392
  store i32 0, ptr %20, align 8, !tbaa !65
  ret void
}